target datalayout = "e-m:e-p270:32:32-p271:32:32-p272:64:64-i64:64-i128:128-f80:128-n8:16:32:64-S128"
target triple = "x86_64-pc-linux-gnu"

%struct.Rectangle = type { float, float, float, float }
%struct.Color = type { i8, i8, i8, i8 }
%struct.Vector2 = type { float, float }

; Function Attrs: nounwind uwtable
define void @DrawRectangleRec(<2 x float> %0, <2 x float> %1, i32 %2) #0 {
  %4 = alloca %struct.Rectangle, align 4
  %5 = alloca %struct.Color, align 1
  %6 = alloca %struct.Vector2, align 4
  %7 = getelementptr inbounds nuw { <2 x float>, <2 x float> }, ptr %4, i32 0, i32 0
  store <2 x float> %0, ptr %7, align 4
  %8 = getelementptr inbounds nuw { <2 x float>, <2 x float> }, ptr %4, i32 0, i32 1
  store <2 x float> %1, ptr %8, align 4
  store i32 %2, ptr %5, align 1
  %9 = getelementptr inbounds nuw %struct.Vector2, ptr %6, i32 0, i32 0
  store float 0.000000e+00, ptr %9, align 4
  %10 = getelementptr inbounds nuw %struct.Vector2, ptr %6, i32 0, i32 1
  store float 0.000000e+00, ptr %10, align 4
  %11 = getelementptr inbounds nuw { <2 x float>, <2 x float> }, ptr %4, i32 0, i32 0
  %12 = load <2 x float>, ptr %11, align 4
  %13 = getelementptr inbounds nuw { <2 x float>, <2 x float> }, ptr %4, i32 0, i32 1
  %14 = load <2 x float>, ptr %13, align 4
  %15 = load <2 x float>, ptr %6, align 4
  %16 = load i32, ptr %5, align 1
  call void @DrawRectanglePro(<2 x float> %12, <2 x float> %14, <2 x float> %15, float noundef 0.000000e+00, i32 %16)
  ret void
}

; Function Attrs: nounwind uwtable
define void @DrawRectangleLinesEx(<2 x float> %0, <2 x float> %1, float noundef %2, i32 %3) #0 {
  %5 = alloca %struct.Rectangle, align 4
  %6 = alloca %struct.Color, align 1
  %7 = alloca float, align 4
  %8 = alloca %struct.Rectangle, align 4
  %9 = alloca %struct.Rectangle, align 4
  %10 = alloca %struct.Rectangle, align 4
  %11 = alloca %struct.Rectangle, align 4
  %12 = getelementptr inbounds nuw { <2 x float>, <2 x float> }, ptr %5, i32 0, i32 0
  store <2 x float> %0, ptr %12, align 4
  %13 = getelementptr inbounds nuw { <2 x float>, <2 x float> }, ptr %5, i32 0, i32 1
  store <2 x float> %1, ptr %13, align 4
  store i32 %3, ptr %6, align 1
  store float %2, ptr %7, align 4
  %14 = load float, ptr %7, align 4
  %15 = getelementptr inbounds nuw %struct.Rectangle, ptr %5, i32 0, i32 2
  %16 = load float, ptr %15, align 4
  %17 = fcmp ogt float %14, %16
  br i1 %17, label %23, label %18

18:                                               ; preds = %4
  %19 = load float, ptr %7, align 4
  %20 = getelementptr inbounds nuw %struct.Rectangle, ptr %5, i32 0, i32 3
  %21 = load float, ptr %20, align 4
  %22 = fcmp ogt float %19, %21
  br i1 %22, label %23, label %45

23:                                               ; preds = %18, %4
  %24 = getelementptr inbounds nuw %struct.Rectangle, ptr %5, i32 0, i32 2
  %25 = load float, ptr %24, align 4
  %26 = getelementptr inbounds nuw %struct.Rectangle, ptr %5, i32 0, i32 3
  %27 = load float, ptr %26, align 4
  %28 = fcmp oge float %25, %27
  br i1 %28, label %29, label %33

29:                                               ; preds = %23
  %30 = getelementptr inbounds nuw %struct.Rectangle, ptr %5, i32 0, i32 3
  %31 = load float, ptr %30, align 4
  %32 = fdiv float %31, 2.000000e+00
  store float %32, ptr %7, align 4
  br label %44

33:                                               ; preds = %23
  %34 = getelementptr inbounds nuw %struct.Rectangle, ptr %5, i32 0, i32 2
  %35 = load float, ptr %34, align 4
  %36 = getelementptr inbounds nuw %struct.Rectangle, ptr %5, i32 0, i32 3
  %37 = load float, ptr %36, align 4
  %38 = fcmp ole float %35, %37
  br i1 %38, label %39, label %43

39:                                               ; preds = %33
  %40 = getelementptr inbounds nuw %struct.Rectangle, ptr %5, i32 0, i32 2
  %41 = load float, ptr %40, align 4
  %42 = fdiv float %41, 2.000000e+00
  store float %42, ptr %7, align 4
  br label %43

43:                                               ; preds = %39, %33
  br label %44

44:                                               ; preds = %43, %29
  br label %45

45:                                               ; preds = %44, %18
  call void @llvm.lifetime.start.p0(i64 16, ptr %8) #8
  %46 = getelementptr inbounds nuw %struct.Rectangle, ptr %8, i32 0, i32 0
  %47 = getelementptr inbounds nuw %struct.Rectangle, ptr %5, i32 0, i32 0
  %48 = load float, ptr %47, align 4
  store float %48, ptr %46, align 4
  %49 = getelementptr inbounds nuw %struct.Rectangle, ptr %8, i32 0, i32 1
  %50 = getelementptr inbounds nuw %struct.Rectangle, ptr %5, i32 0, i32 1
  %51 = load float, ptr %50, align 4
  store float %51, ptr %49, align 4
  %52 = getelementptr inbounds nuw %struct.Rectangle, ptr %8, i32 0, i32 2
  %53 = getelementptr inbounds nuw %struct.Rectangle, ptr %5, i32 0, i32 2
  %54 = load float, ptr %53, align 4
  store float %54, ptr %52, align 4
  %55 = getelementptr inbounds nuw %struct.Rectangle, ptr %8, i32 0, i32 3
  %56 = load float, ptr %7, align 4
  store float %56, ptr %55, align 4
  call void @llvm.lifetime.start.p0(i64 16, ptr %9) #8
  %57 = getelementptr inbounds nuw %struct.Rectangle, ptr %9, i32 0, i32 0
  %58 = getelementptr inbounds nuw %struct.Rectangle, ptr %5, i32 0, i32 0
  %59 = load float, ptr %58, align 4
  store float %59, ptr %57, align 4
  %60 = getelementptr inbounds nuw %struct.Rectangle, ptr %9, i32 0, i32 1
  %61 = getelementptr inbounds nuw %struct.Rectangle, ptr %5, i32 0, i32 1
  %62 = load float, ptr %61, align 4
  %63 = load float, ptr %7, align 4
  %64 = fsub float %62, %63
  %65 = getelementptr inbounds nuw %struct.Rectangle, ptr %5, i32 0, i32 3
  %66 = load float, ptr %65, align 4
  %67 = fadd float %64, %66
  store float %67, ptr %60, align 4
  %68 = getelementptr inbounds nuw %struct.Rectangle, ptr %9, i32 0, i32 2
  %69 = getelementptr inbounds nuw %struct.Rectangle, ptr %5, i32 0, i32 2
  %70 = load float, ptr %69, align 4
  store float %70, ptr %68, align 4
  %71 = getelementptr inbounds nuw %struct.Rectangle, ptr %9, i32 0, i32 3
  %72 = load float, ptr %7, align 4
  store float %72, ptr %71, align 4
  call void @llvm.lifetime.start.p0(i64 16, ptr %10) #8
  %73 = getelementptr inbounds nuw %struct.Rectangle, ptr %10, i32 0, i32 0
  %74 = getelementptr inbounds nuw %struct.Rectangle, ptr %5, i32 0, i32 0
  %75 = load float, ptr %74, align 4
  store float %75, ptr %73, align 4
  %76 = getelementptr inbounds nuw %struct.Rectangle, ptr %10, i32 0, i32 1
  %77 = getelementptr inbounds nuw %struct.Rectangle, ptr %5, i32 0, i32 1
  %78 = load float, ptr %77, align 4
  %79 = load float, ptr %7, align 4
  %80 = fadd float %78, %79
  store float %80, ptr %76, align 4
  %81 = getelementptr inbounds nuw %struct.Rectangle, ptr %10, i32 0, i32 2
  %82 = load float, ptr %7, align 4
  store float %82, ptr %81, align 4
  %83 = getelementptr inbounds nuw %struct.Rectangle, ptr %10, i32 0, i32 3
  %84 = getelementptr inbounds nuw %struct.Rectangle, ptr %5, i32 0, i32 3
  %85 = load float, ptr %84, align 4
  %86 = load float, ptr %7, align 4
  %87 = fneg float %86
  %88 = call float @llvm.fmuladd.f32(float %87, float 2.000000e+00, float %85)
  store float %88, ptr %83, align 4
  call void @llvm.lifetime.start.p0(i64 16, ptr %11) #8
  %89 = getelementptr inbounds nuw %struct.Rectangle, ptr %11, i32 0, i32 0
  %90 = getelementptr inbounds nuw %struct.Rectangle, ptr %5, i32 0, i32 0
  %91 = load float, ptr %90, align 4
  %92 = load float, ptr %7, align 4
  %93 = fsub float %91, %92
  %94 = getelementptr inbounds nuw %struct.Rectangle, ptr %5, i32 0, i32 2
  %95 = load float, ptr %94, align 4
  %96 = fadd float %93, %95
  store float %96, ptr %89, align 4
  %97 = getelementptr inbounds nuw %struct.Rectangle, ptr %11, i32 0, i32 1
  %98 = getelementptr inbounds nuw %struct.Rectangle, ptr %5, i32 0, i32 1
  %99 = load float, ptr %98, align 4
  %100 = load float, ptr %7, align 4
  %101 = fadd float %99, %100
  store float %101, ptr %97, align 4
  %102 = getelementptr inbounds nuw %struct.Rectangle, ptr %11, i32 0, i32 2
  %103 = load float, ptr %7, align 4
  store float %103, ptr %102, align 4
  %104 = getelementptr inbounds nuw %struct.Rectangle, ptr %11, i32 0, i32 3
  %105 = getelementptr inbounds nuw %struct.Rectangle, ptr %5, i32 0, i32 3
  %106 = load float, ptr %105, align 4
  %107 = load float, ptr %7, align 4
  %108 = fneg float %107
  %109 = call float @llvm.fmuladd.f32(float %108, float 2.000000e+00, float %106)
  store float %109, ptr %104, align 4
  %110 = getelementptr inbounds nuw { <2 x float>, <2 x float> }, ptr %8, i32 0, i32 0
  %111 = load <2 x float>, ptr %110, align 4
  %112 = getelementptr inbounds nuw { <2 x float>, <2 x float> }, ptr %8, i32 0, i32 1
  %113 = load <2 x float>, ptr %112, align 4
  %114 = load i32, ptr %6, align 1
  call void @DrawRectangleRec(<2 x float> %111, <2 x float> %113, i32 %114)
  %115 = getelementptr inbounds nuw { <2 x float>, <2 x float> }, ptr %9, i32 0, i32 0
  %116 = load <2 x float>, ptr %115, align 4
  %117 = getelementptr inbounds nuw { <2 x float>, <2 x float> }, ptr %9, i32 0, i32 1
  %118 = load <2 x float>, ptr %117, align 4
  %119 = load i32, ptr %6, align 1
  call void @DrawRectangleRec(<2 x float> %116, <2 x float> %118, i32 %119)
  %120 = getelementptr inbounds nuw { <2 x float>, <2 x float> }, ptr %10, i32 0, i32 0
  %121 = load <2 x float>, ptr %120, align 4
  %122 = getelementptr inbounds nuw { <2 x float>, <2 x float> }, ptr %10, i32 0, i32 1
  %123 = load <2 x float>, ptr %122, align 4
  %124 = load i32, ptr %6, align 1
  call void @DrawRectangleRec(<2 x float> %121, <2 x float> %123, i32 %124)
  %125 = getelementptr inbounds nuw { <2 x float>, <2 x float> }, ptr %11, i32 0, i32 0
  %126 = load <2 x float>, ptr %125, align 4
  %127 = getelementptr inbounds nuw { <2 x float>, <2 x float> }, ptr %11, i32 0, i32 1
  %128 = load <2 x float>, ptr %127, align 4
  %129 = load i32, ptr %6, align 1
  call void @DrawRectangleRec(<2 x float> %126, <2 x float> %128, i32 %129)
  call void @llvm.lifetime.end.p0(i64 16, ptr %11) #8
  call void @llvm.lifetime.end.p0(i64 16, ptr %10) #8
  call void @llvm.lifetime.end.p0(i64 16, ptr %9) #8
  call void @llvm.lifetime.end.p0(i64 16, ptr %8) #8
  ret void
}