; Function Attrs: nounwind uwtable
define void @DrawRectangleLinesEx(<2 x float> %0, <2 x float> %1, float noundef %2, i32 %3) local_unnamed_addr #4 {
  %.sroa.9.8.vec.extract = extractelement <2 x float> %1, i64 0
  %5 = fcmp ogt float %2, %.sroa.9.8.vec.extract
  %.sroa.9.12.vec.extract = extractelement <2 x float> %1, i64 1
  %6 = fcmp ogt float %2, %.sroa.9.12.vec.extract
  %or.cond = select i1 %5, i1 true, i1 %6
  br i1 %or.cond, label %7, label %15

7:                                                ; preds = %4
  %8 = fcmp ult float %.sroa.9.8.vec.extract, %.sroa.9.12.vec.extract
  br i1 %8, label %11, label %9

9:                                                ; preds = %7
  %10 = fmul float %.sroa.9.12.vec.extract, 5.000000e-01
  br label %15

11:                                               ; preds = %7
  %12 = fcmp ugt float %.sroa.9.8.vec.extract, %.sroa.9.12.vec.extract
  br i1 %12, label %15, label %13

13:                                               ; preds = %11
  %14 = fmul float %.sroa.9.8.vec.extract, 5.000000e-01
  br label %15

15:                                               ; preds = %4, %9, %13, %11
  %.0 = phi float [ %10, %9 ], [ %14, %13 ], [ %2, %11 ], [ %2, %4 ]
  %.sroa.030.0.vec.extract = extractelement <2 x float> %0, i64 0
  %.sroa.011.0.vec.insert68 = insertelement <2 x float> %0, float undef, i64 1
  %.sroa.030.4.vec.extract = extractelement <2 x float> %0, i64 1
  %.sroa.513.12.vec.insert = insertelement <2 x float> %1, float %.0, i64 1
  %16 = fsub float %.sroa.030.4.vec.extract, %.0
  %17 = fadd float %.sroa.9.12.vec.extract, %16
  %.sroa.07.4.vec.insert = insertelement <2 x float> %.sroa.011.0.vec.insert68, float %17, i64 1
  %18 = fadd float %.sroa.030.4.vec.extract, %.0
  %.sroa.03.4.vec.insert = insertelement <2 x float> %.sroa.011.0.vec.insert68, float %18, i64 1
  %.sroa.55.8.vec.insert = insertelement <2 x float> poison, float %.0, i64 0
  %19 = fneg float %.0
  %20 = tail call float @llvm.fmuladd.f32(float %19, float 2.000000e+00, float %.sroa.9.12.vec.extract)
  %.sroa.55.12.vec.insert = insertelement <2 x float> %.sroa.55.8.vec.insert, float %20, i64 1
  %21 = fsub float %.sroa.030.0.vec.extract, %.0
  %22 = fadd float %.sroa.9.8.vec.extract, %21
  %.sroa.0.0.vec.insert = insertelement <2 x float> poison, float %22, i64 0
  %.sroa.0.4.vec.insert = insertelement <2 x float> %.sroa.0.0.vec.insert, float %18, i64 1
  tail call void @DrawRectanglePro(<2 x float> %0, <2 x float> %.sroa.513.12.vec.insert, <2 x float> zeroinitializer, float noundef 0.000000e+00, i32 %3)
  tail call void @DrawRectanglePro(<2 x float> %.sroa.07.4.vec.insert, <2 x float> %.sroa.513.12.vec.insert, <2 x float> zeroinitializer, float noundef 0.000000e+00, i32 %3)
  tail call void @DrawRectanglePro(<2 x float> %.sroa.03.4.vec.insert, <2 x float> %.sroa.55.12.vec.insert, <2 x float> zeroinitializer, float noundef 0.000000e+00, i32 %3)
  tail call void @DrawRectanglePro(<2 x float> %.sroa.0.4.vec.insert, <2 x float> %.sroa.55.12.vec.insert, <2 x float> zeroinitializer, float noundef 0.000000e+00, i32 %3)
  ret void
}